target datalayout = "e-m:e-p270:32:32-p271:32:32-p272:64:64-i64:64-i128:128-f80:128-n8:16:32:64-S128"
target triple = "x86_64-unknown-linux-gnu"

%"class.arrow::compute::KeyColumnArray" = type { [3 x ptr], [3 x ptr], %"struct.arrow::compute::KeyColumnMetadata", i64, [2 x i32] }
%"struct.arrow::compute::KeyColumnMetadata" = type { i8, i8, i32 }

; Function Attrs: mustprogress nounwind uwtable
define void @_ZNK5arrow7compute14KeyColumnArray14WithBufferFromERKS1_i(ptr noalias sret(%"class.arrow::compute::KeyColumnArray") align 8 %agg.result, ptr noundef nonnull align 8 dereferenceable(72) %this, ptr noundef nonnull align 8 dereferenceable(72) %other, i32 noundef %buffer_id_to_replace) #0 align 2 {
entry:
  %this.addr = alloca ptr, align 8
  %other.addr = alloca ptr, align 8
  %buffer_id_to_replace.addr = alloca i32, align 4
  store ptr %this, ptr %this.addr, align 8
  store ptr %other, ptr %other.addr, align 8
  store i32 %buffer_id_to_replace, ptr %buffer_id_to_replace.addr, align 4
  %this1 = load ptr, ptr %this.addr, align 8
  call void @llvm.memcpy.p0.p0.i64(ptr align 8 %agg.result, ptr align 8 %this1, i64 72, i1 false)
  %0 = load ptr, ptr %other.addr, align 8
  %mutable_buffers_ = getelementptr inbounds %"class.arrow::compute::KeyColumnArray", ptr %0, i32 0, i32 1
  %1 = load i32, ptr %buffer_id_to_replace.addr, align 4
  %idxprom = sext i32 %1 to i64
  %arrayidx = getelementptr inbounds [3 x ptr], ptr %mutable_buffers_, i64 0, i64 %idxprom
  %2 = load ptr, ptr %arrayidx, align 8
  %mutable_buffers_2 = getelementptr inbounds %"class.arrow::compute::KeyColumnArray", ptr %agg.result, i32 0, i32 1
  %3 = load i32, ptr %buffer_id_to_replace.addr, align 4
  %idxprom3 = sext i32 %3 to i64
  %arrayidx4 = getelementptr inbounds [3 x ptr], ptr %mutable_buffers_2, i64 0, i64 %idxprom3
  store ptr %2, ptr %arrayidx4, align 8
  %4 = load ptr, ptr %other.addr, align 8
  %buffers_ = getelementptr inbounds %"class.arrow::compute::KeyColumnArray", ptr %4, i32 0, i32 0
  %5 = load i32, ptr %buffer_id_to_replace.addr, align 4
  %idxprom5 = sext i32 %5 to i64
  %arrayidx6 = getelementptr inbounds [3 x ptr], ptr %buffers_, i64 0, i64 %idxprom5
  %6 = load ptr, ptr %arrayidx6, align 8
  %buffers_7 = getelementptr inbounds %"class.arrow::compute::KeyColumnArray", ptr %agg.result, i32 0, i32 0
  %7 = load i32, ptr %buffer_id_to_replace.addr, align 4
  %idxprom8 = sext i32 %7 to i64
  %arrayidx9 = getelementptr inbounds [3 x ptr], ptr %buffers_7, i64 0, i64 %idxprom8
  store ptr %6, ptr %arrayidx9, align 8
  %8 = load i32, ptr %buffer_id_to_replace.addr, align 4
  %cmp = icmp slt i32 %8, 2
  br i1 %cmp, label %if.then, label %if.end

if.then:                                          ; preds = %entry
  %9 = load ptr, ptr %other.addr, align 8
  %bit_offset_ = getelementptr inbounds %"class.arrow::compute::KeyColumnArray", ptr %9, i32 0, i32 4
  %10 = load i32, ptr %buffer_id_to_replace.addr, align 4
  %idxprom10 = sext i32 %10 to i64
  %arrayidx11 = getelementptr inbounds [2 x i32], ptr %bit_offset_, i64 0, i64 %idxprom10
  %11 = load i32, ptr %arrayidx11, align 4
  %bit_offset_12 = getelementptr inbounds %"class.arrow::compute::KeyColumnArray", ptr %agg.result, i32 0, i32 4
  %12 = load i32, ptr %buffer_id_to_replace.addr, align 4
  %idxprom13 = sext i32 %12 to i64
  %arrayidx14 = getelementptr inbounds [2 x i32], ptr %bit_offset_12, i64 0, i64 %idxprom13
  store i32 %11, ptr %arrayidx14, align 4
  br label %if.end

if.end:                                           ; preds = %if.then, %entry
  ret void
}