; Function Attrs: mustprogress nofree norecurse nosync nounwind willreturn memory(argmem: readwrite) uwtable
define void @_ZNK5arrow7compute14KeyColumnArray14WithBufferFromERKS1_i(ptr noalias nocapture writeonly sret(%"class.arrow::compute::KeyColumnArray") align 8 %agg.result, ptr nocapture noundef nonnull readonly align 8 dereferenceable(72) %this, ptr nocapture noundef nonnull readonly align 8 dereferenceable(72) %other, i32 noundef %buffer_id_to_replace) local_unnamed_addr #0 align 2 {
entry:
  tail call void @llvm.memcpy.p0.p0.i64(ptr noundef nonnull align 8 dereferenceable(72) %agg.result, ptr noundef nonnull align 8 dereferenceable(72) %this, i64 72, i1 false)
  %mutable_buffers_ = getelementptr inbounds i8, ptr %other, i64 24
  %idxprom = sext i32 %buffer_id_to_replace to i64
  %arrayidx = getelementptr inbounds [3 x ptr], ptr %mutable_buffers_, i64 0, i64 %idxprom
  %0 = load ptr, ptr %arrayidx, align 8
  %mutable_buffers_2 = getelementptr inbounds i8, ptr %agg.result, i64 24
  %arrayidx4 = getelementptr inbounds [3 x ptr], ptr %mutable_buffers_2, i64 0, i64 %idxprom
  store ptr %0, ptr %arrayidx4, align 8
  %arrayidx6 = getelementptr inbounds [3 x ptr], ptr %other, i64 0, i64 %idxprom
  %1 = load ptr, ptr %arrayidx6, align 8
  %arrayidx9 = getelementptr inbounds [3 x ptr], ptr %agg.result, i64 0, i64 %idxprom
  store ptr %1, ptr %arrayidx9, align 8
  %cmp = icmp slt i32 %buffer_id_to_replace, 2
  br i1 %cmp, label %if.then, label %if.end

if.then:                                          ; preds = %entry
  %bit_offset_ = getelementptr inbounds i8, ptr %other, i64 64
  %arrayidx11 = getelementptr inbounds [2 x i32], ptr %bit_offset_, i64 0, i64 %idxprom
  %2 = load i32, ptr %arrayidx11, align 4
  %bit_offset_12 = getelementptr inbounds i8, ptr %agg.result, i64 64
  %arrayidx14 = getelementptr inbounds [2 x i32], ptr %bit_offset_12, i64 0, i64 %idxprom
  store i32 %2, ptr %arrayidx14, align 4
  br label %if.end

if.end:                                           ; preds = %if.then, %entry
  ret void
}